target datalayout = "e-m:e-p270:32:32-p271:32:32-p272:64:64-i64:64-i128:128-f80:128-n8:16:32:64-S128"
target triple = "x86_64-unknown-linux-gnu"

%"class.folly::Range" = type { ptr, ptr }
%"struct.folly::None" = type { i8 }
%"class.folly::Optional" = type { %"struct.folly::Optional<folly::dynamic>::StorageNonTriviallyDestructible" }
%"struct.folly::Optional<folly::dynamic>::StorageNonTriviallyDestructible" = type <{ %union.anon, i8, [7 x i8] }>
%union.anon = type { %"struct.folly::dynamic" }
%"struct.folly::dynamic" = type { i32, %"union.folly::dynamic::Data" }
%"union.folly::dynamic::Data" = type { %"class.std::__cxx11::basic_string" }
%"class.std::__cxx11::basic_string" = type { %"struct.std::__cxx11::basic_string<char>::_Alloc_hider", i64, %union.anon.8 }
%"struct.std::__cxx11::basic_string<char>::_Alloc_hider" = type { ptr }
%union.anon.8 = type { i64, [8 x i8] }

@_ZTIN5folly4json11parse_errorE = linkonce_odr constant { ptr, ptr, ptr } { ptr getelementptr inbounds (ptr, ptr @_ZTVN10__cxxabiv120__si_class_type_infoE, i64 2), ptr @_ZTSN5folly4json11parse_errorE, ptr @_ZTISt13runtime_error }, comdat, align 8
@_ZN5follyL4noneE = internal constant %"struct.folly::None" undef, align 1

; Function Attrs: noreturn nounwind uwtable
define linkonce_odr hidden void @__clang_call_terminate(ptr noundef %0) #8 comdat {
  %2 = call ptr @__cxa_begin_catch(ptr %0) #2
  call void @_ZSt9terminatev() #20
  unreachable
}

; Function Attrs: mustprogress nounwind uwtable
define linkonce_odr void @_ZN5folly8OptionalINS_7dynamicEE31StorageNonTriviallyDestructibleC2Ev(ptr noundef nonnull align 8 dereferenceable(41) %this) unnamed_addr #1 comdat align 2 {
entry:
  %this.addr = alloca ptr, align 8
  store ptr %this, ptr %this.addr, align 8
  %this1 = load ptr, ptr %this.addr, align 8
  %hasValue = getelementptr inbounds %"struct.folly::Optional<folly::dynamic>::StorageNonTriviallyDestructible", ptr %this1, i32 0, i32 1
  store i8 0, ptr %hasValue, align 8
  ret void
}

; Function Attrs: mustprogress nounwind uwtable
define linkonce_odr void @_ZN5folly8OptionalINS_7dynamicEEC2ERKNS_4NoneE(ptr noundef nonnull align 8 dereferenceable(48) %this, ptr noundef nonnull align 1 dereferenceable(1) %0) unnamed_addr #1 comdat align 2 personality ptr @__gxx_personality_v0 {
entry:
  %this.addr = alloca ptr, align 8
  %.addr = alloca ptr, align 8
  store ptr %this, ptr %this.addr, align 8
  store ptr %0, ptr %.addr, align 8
  %this1 = load ptr, ptr %this.addr, align 8
  %storage_ = getelementptr inbounds %"class.folly::Optional", ptr %this1, i32 0, i32 0
  invoke void @_ZN5folly8OptionalINS_7dynamicEE31StorageNonTriviallyDestructibleC2Ev(ptr noundef nonnull align 8 dereferenceable(41) %storage_)
          to label %invoke.cont unwind label %terminate.lpad

invoke.cont:                                      ; preds = %entry
  ret void

terminate.lpad:                                   ; preds = %entry
  %1 = landingpad { ptr, i32 }
          catch ptr null
  %2 = extractvalue { ptr, i32 } %1, 0
  call void @__clang_call_terminate(ptr %2) #20
  unreachable
}

; Function Attrs: mustprogress uwtable
define void @_ZN8facebook5velox9functions11jsonExtractERKN5folly7dynamicENS2_5RangeIPKcEE(ptr noalias sret(%"class.folly::Optional") align 8 %agg.result, ptr noundef nonnull align 8 dereferenceable(40) %json, ptr %path.coerce0, ptr %path.coerce1) #3 personality ptr @__gxx_personality_v0 {
entry:
  %result.ptr = alloca ptr, align 8
  %path = alloca %"class.folly::Range", align 8
  %json.addr = alloca ptr, align 8
  %agg.tmp = alloca %"class.folly::Range", align 8
  %exn.slot = alloca ptr, align 8
  %ehselector.slot = alloca i32, align 4
  %0 = alloca ptr, align 8
  store ptr %agg.result, ptr %result.ptr, align 8
  %1 = getelementptr inbounds { ptr, ptr }, ptr %path, i32 0, i32 0
  store ptr %path.coerce0, ptr %1, align 8
  %2 = getelementptr inbounds { ptr, ptr }, ptr %path, i32 0, i32 1
  store ptr %path.coerce1, ptr %2, align 8
  store ptr %json, ptr %json.addr, align 8
  call void @llvm.memcpy.p0.p0.i64(ptr align 8 %agg.tmp, ptr align 8 %path, i64 16, i1 false)
  %3 = getelementptr inbounds { ptr, ptr }, ptr %agg.tmp, i32 0, i32 0
  %4 = load ptr, ptr %3, align 8
  %5 = getelementptr inbounds { ptr, ptr }, ptr %agg.tmp, i32 0, i32 1
  %6 = load ptr, ptr %5, align 8
  %call = invoke noundef nonnull align 8 dereferenceable(24) ptr @_ZN8facebook5velox9functions12_GLOBAL__N_113JsonExtractor11getInstanceEN5folly5RangeIPKcEE(ptr %4, ptr %6)
          to label %invoke.cont unwind label %lpad

invoke.cont:                                      ; preds = %entry
  %7 = load ptr, ptr %json.addr, align 8
  invoke void @_ZN8facebook5velox9functions12_GLOBAL__N_113JsonExtractor7extractERKN5folly7dynamicE(ptr sret(%"class.folly::Optional") align 8 %agg.result, ptr noundef nonnull align 8 dereferenceable(24) %call, ptr noundef nonnull align 8 dereferenceable(40) %7)
          to label %invoke.cont1 unwind label %lpad

invoke.cont1:                                     ; preds = %invoke.cont
  br label %return

lpad:                                             ; preds = %invoke.cont, %entry
  %8 = landingpad { ptr, i32 }
          catch ptr @_ZTIN5folly4json11parse_errorE
  %9 = extractvalue { ptr, i32 } %8, 0
  store ptr %9, ptr %exn.slot, align 8
  %10 = extractvalue { ptr, i32 } %8, 1
  store i32 %10, ptr %ehselector.slot, align 4
  br label %catch.dispatch

catch.dispatch:                                   ; preds = %lpad
  %sel = load i32, ptr %ehselector.slot, align 4
  %11 = call i32 @llvm.eh.typeid.for(ptr @_ZTIN5folly4json11parse_errorE) #2
  %matches = icmp eq i32 %sel, %11
  br i1 %matches, label %catch, label %eh.resume

catch:                                            ; preds = %catch.dispatch
  %exn = load ptr, ptr %exn.slot, align 8
  %12 = call ptr @__cxa_begin_catch(ptr %exn) #2
  store ptr %12, ptr %0, align 8
  call void @__cxa_end_catch()
  br label %try.cont

try.cont:                                         ; preds = %catch
  call void @_ZN5folly8OptionalINS_7dynamicEEC2ERKNS_4NoneE(ptr noundef nonnull align 8 dereferenceable(48) %agg.result, ptr noundef nonnull align 1 dereferenceable(1) @_ZN5follyL4noneE) #2
  br label %return

return:                                           ; preds = %try.cont, %invoke.cont1
  ret void

eh.resume:                                        ; preds = %catch.dispatch
  %exn2 = load ptr, ptr %exn.slot, align 8
  %sel3 = load i32, ptr %ehselector.slot, align 4
  %lpad.val = insertvalue { ptr, i32 } poison, ptr %exn2, 0
  %lpad.val4 = insertvalue { ptr, i32 } %lpad.val, i32 %sel3, 1
  resume { ptr, i32 } %lpad.val4
}