; Function Attrs: mustprogress uwtable
define void @_ZN8facebook5velox9functions11jsonExtractERKN5folly7dynamicENS2_5RangeIPKcEE(ptr noalias sret(%"class.folly::Optional") align 8 %agg.result, ptr noundef nonnull align 8 dereferenceable(40) %json, ptr %path.coerce0, ptr %path.coerce1) local_unnamed_addr #2 personality ptr @__gxx_personality_v0 {
entry:
  %call = invoke fastcc noundef nonnull align 8 dereferenceable(24) ptr @_ZN8facebook5velox9functions12_GLOBAL__N_113JsonExtractor11getInstanceEN5folly5RangeIPKcEE(ptr %path.coerce0, ptr %path.coerce1)
          to label %invoke.cont unwind label %lpad

invoke.cont:                                      ; preds = %entry
  invoke fastcc void @_ZN8facebook5velox9functions12_GLOBAL__N_113JsonExtractor7extractERKN5folly7dynamicE(ptr noalias align 8 %agg.result, ptr noundef nonnull align 8 dereferenceable(24) %call, ptr noundef nonnull align 8 dereferenceable(40) %json)
          to label %return unwind label %lpad

lpad:                                             ; preds = %invoke.cont, %entry
  %0 = landingpad { ptr, i32 }
          catch ptr @_ZTIN5folly4json11parse_errorE
  %1 = extractvalue { ptr, i32 } %0, 1
  %2 = tail call i32 @llvm.eh.typeid.for(ptr nonnull @_ZTIN5folly4json11parse_errorE) #1
  %matches = icmp eq i32 %1, %2
  br i1 %matches, label %catch, label %eh.resume

catch:                                            ; preds = %lpad
  %3 = extractvalue { ptr, i32 } %0, 0
  %4 = tail call ptr @__cxa_begin_catch(ptr %3) #1
  tail call void @__cxa_end_catch()
  %hasValue.i.i = getelementptr inbounds i8, ptr %agg.result, i64 40
  store i8 0, ptr %hasValue.i.i, align 8
  br label %return

return:                                           ; preds = %invoke.cont, %catch
  ret void

eh.resume:                                        ; preds = %lpad
  resume { ptr, i32 } %0
}